Certificate:
    Data:
        Version: 3 (0x2)
        Serial Number: 1 (0x1)
        Signature Algorithm: sha256WithRSAEncryption
        Issuer: O=Test Org, CN=Test Org rauc CA Development
        Validity
            Not Before: Jan  1 00:00:00 1970 GMT
            Not After : Dec 31 23:59:59 9999 GMT
        Subject: O=Test Org, CN=Test Org rauc CA Development
        Subject Public Key Info:
            Public Key Algorithm: rsaEncryption
                Public-Key: (2048 bit)
                Modulus:
                    00:bc:66:32:5e:16:b6:01:91:e3:59:f9:3b:a8:a6:
                    53:5a:f4:7c:53:f2:95:ed:c3:5f:2a:4c:e5:4b:96:
                    fa:c9:6c:be:ca:3b:35:c2:a6:0c:ed:82:1e:20:54:
                    33:e9:0e:36:c8:3c:cd:9f:11:ce:2f:da:86:2b:6c:
                    07:84:f5:5f:56:1b:28:ce:aa:ba:ea:f8:23:3e:fe:
                    92:e8:cf:e5:f4:09:aa:5b:ea:a0:12:5e:24:69:8b:
                    fc:2f:9f:83:20:37:70:06:72:9b:4b:64:66:3f:d4:
                    fb:06:e3:9d:3d:3c:70:28:8d:a4:f2:f9:d1:30:4d:
                    2e:13:4e:72:ad:99:96:50:04:8e:12:92:96:ae:93:
                    cf:42:3b:f4:20:27:88:43:78:df:88:f5:fa:aa:c0:
                    d3:af:0c:3f:19:20:1b:7b:23:e1:17:ba:d3:70:b3:
                    47:b2:f3:8d:d4:96:c0:4c:a6:5d:86:c7:f5:b5:47:
                    25:33:45:ba:63:8c:72:94:f2:7b:da:33:f4:77:71:
                    1c:91:7b:34:a7:86:32:97:a0:14:3f:25:2c:ef:23:
                    5b:b7:40:56:2e:30:99:6b:de:7a:68:a0:df:c4:90:
                    4f:39:a8:c0:4e:39:1b:52:3d:56:4a:3c:20:41:07:
                    c2:d1:8c:39:e2:a7:1f:65:45:a7:cc:77:5a:07:2b:
                    08:eb
                Exponent: 65537 (0x10001)
        X509v3 extensions:
            X509v3 Subject Key Identifier: 
                DA:09:54:71:AC:E7:EC:84:46:41:62:99:48:82:F2:AB:DD:A6:81:1E
            X509v3 Authority Key Identifier: 
                keyid:DA:09:54:71:AC:E7:EC:84:46:41:62:99:48:82:F2:AB:DD:A6:81:1E
                DirName:/O=Test Org/CN=Test Org rauc CA Development
                serial:01
            X509v3 Basic Constraints: 
                CA:TRUE
    Signature Algorithm: sha256WithRSAEncryption
    Signature Value:
        9d:54:90:a3:db:17:20:78:8d:61:f4:d5:a0:f9:36:6e:67:63:
        0a:37:d3:ad:ad:98:aa:90:dc:f8:a9:40:b8:e6:8b:28:24:8a:
        8f:1b:fa:85:a6:91:e4:51:ae:39:a4:32:ea:c4:9f:76:aa:de:
        f0:cb:9e:26:18:2d:0a:47:41:91:a0:28:8a:73:c9:18:a1:cc:
        37:0e:55:12:a0:51:58:10:58:c7:54:22:ea:cc:3a:42:1b:f8:
        f1:04:d3:c9:69:33:9c:d4:9d:f3:c2:ad:80:71:b6:ac:b9:f6:
        dd:02:6e:6f:41:0f:81:8e:5b:1d:19:8e:a2:cf:3a:36:66:da:
        68:28:59:79:f5:a5:49:9a:ab:a6:a2:0b:58:e1:94:ea:88:b6:
        17:79:8f:22:b8:fa:85:ae:ee:11:63:bb:f0:10:a4:df:c3:e9:
        3f:6b:db:32:03:7b:96:a4:8e:18:39:04:b7:d6:b3:03:bb:f8:
        95:1e:ce:88:03:53:13:a2:74:86:ca:5b:9f:49:06:70:dd:8c:
        3f:03:e3:82:7a:c6:08:ad:11:a3:b7:99:5b:79:2b:d0:86:c3:
        ad:cf:53:1e:ad:36:4f:7b:30:db:3d:a4:79:90:9e:12:ed:76:
        ba:08:1f:ea:3b:79:2a:9b:7a:2f:59:b4:52:04:28:50:ca:e6:
        55:f9:9c:05
-----BEGIN CERTIFICATE-----
MIIDhjCCAm6gAwIBAgIBATANBgkqhkiG9w0BAQsFADA6MREwDwYDVQQKDAhUZXN0
IE9yZzElMCMGA1UEAwwcVGVzdCBPcmcgcmF1YyBDQSBEZXZlbG9wbWVudDAgFw03
MDAxMDEwMDAwMDBaGA85OTk5MTIzMTIzNTk1OVowOjERMA8GA1UECgwIVGVzdCBP
cmcxJTAjBgNVBAMMHFRlc3QgT3JnIHJhdWMgQ0EgRGV2ZWxvcG1lbnQwggEiMA0G
CSqGSIb3DQEBAQUAA4IBDwAwggEKAoIBAQC8ZjJeFrYBkeNZ+TuoplNa9HxT8pXt
w18qTOVLlvrJbL7KOzXCpgztgh4gVDPpDjbIPM2fEc4v2oYrbAeE9V9WGyjOqrrq
+CM+/pLoz+X0Capb6qASXiRpi/wvn4MgN3AGcptLZGY/1PsG4509PHAojaTy+dEw
TS4TTnKtmZZQBI4Skpauk89CO/QgJ4hDeN+I9fqqwNOvDD8ZIBt7I+EXutNws0ey
843UlsBMpl2Gx/W1RyUzRbpjjHKU8nvaM/R3cRyRezSnhjKXoBQ/JSzvI1u3QFYu
MJlr3npooN/EkE85qMBOORtSPVZKPCBBB8LRjDnipx9lRafMd1oHKwjrAgMBAAGj
gZQwgZEwHQYDVR0OBBYEFNoJVHGs5+yERkFimUiC8qvdpoEeMGIGA1UdIwRbMFmA
FNoJVHGs5+yERkFimUiC8qvdpoEeoT6kPDA6MREwDwYDVQQKDAhUZXN0IE9yZzEl
MCMGA1UEAwwcVGVzdCBPcmcgcmF1YyBDQSBEZXZlbG9wbWVudIIBATAMBgNVHRME
BTADAQH/MA0GCSqGSIb3DQEBCwUAA4IBAQCdVJCj2xcgeI1h9NWg+TZuZ2MKN9Ot
rZiqkNz4qUC45osoJIqPG/qFppHkUa45pDLqxJ92qt7wy54mGC0KR0GRoCiKc8kY
ocw3DlUSoFFYEFjHVCLqzDpCG/jxBNPJaTOc1J3zwq2AcbasufbdAm5vQQ+Bjlsd
GY6izzo2ZtpoKFl59aVJmqumogtY4ZTqiLYXeY8iuPqFru4RY7vwEKTfw+k/a9sy
A3uWpI4YOQS31rMDu/iVHs6IA1MTonSGylufSQZw3Yw/A+OCesYIrRGjt5lbeSvQ
hsOtz1MerTZPezDbPaR5kJ4S7Xa6CB/qO3kqm3ovWbRSBChQyuZV+ZwF
-----END CERTIFICATE-----
