Certificate:
    Data:
        Version: 3 (0x2)
        Serial Number: 2 (0x2)
        Signature Algorithm: sha256WithRSAEncryption
        Issuer: O=Test Org, CN=Test Org rauc CA Development
        Validity
            Not Before: Jan  1 00:00:00 1970 GMT
            Not After : Dec 31 23:59:59 9999 GMT
        Subject: O=Test Org, CN=Test Org Development-1
        Subject Public Key Info:
            Public Key Algorithm: rsaEncryption
                Public-Key: (2048 bit)
                Modulus:
                    00:b0:b9:c8:6c:76:df:fd:6b:70:86:08:e6:ca:a9:
                    e0:1e:21:d2:69:45:6a:6b:df:f1:8a:ee:00:b1:f4:
                    06:1e:0f:3c:14:a0:f4:72:a3:a4:cd:be:96:0e:83:
                    5d:a6:d2:5a:57:70:87:fa:4f:af:fc:7f:b4:1a:7c:
                    b4:82:fa:ef:10:df:40:b3:d4:0d:e1:df:22:17:b5:
                    a8:d7:61:19:75:42:5e:f4:3c:fb:fb:79:0b:03:39:
                    80:1c:de:50:6a:f1:a5:63:6a:08:45:63:c2:78:9b:
                    60:1d:db:51:5e:46:41:22:8d:33:c7:81:da:b6:09:
                    85:e6:da:95:a1:75:33:2f:ad:e0:db:06:9b:2c:19:
                    2e:23:d3:af:b0:dc:ce:f2:75:d7:0d:6c:ba:95:dc:
                    e5:d7:92:5b:94:1c:94:83:26:50:20:57:95:ca:98:
                    85:6e:78:d6:56:47:33:41:ef:cc:0d:a1:dc:e7:4d:
                    34:dd:cc:fd:51:45:be:3a:5a:1b:89:f7:69:be:c6:
                    33:94:46:45:7a:24:ce:56:2b:38:8f:c3:5d:55:5c:
                    61:de:0c:a4:13:c7:75:c5:9b:00:47:d0:c6:08:c9:
                    77:d1:bd:1a:fc:ac:55:c6:81:af:cc:9c:7e:f2:f8:
                    15:a6:f7:67:4f:b2:9e:cd:50:5f:e9:a9:da:9f:c4:
                    34:57
                Exponent: 65537 (0x10001)
        X509v3 extensions:
            X509v3 Subject Key Identifier: 
                78:28:A7:AD:28:19:36:B7:DB:D0:0A:14:E5:32:45:1F:7A:C8:59:F8
            X509v3 Authority Key Identifier: 
                keyid:DA:09:54:71:AC:E7:EC:84:46:41:62:99:48:82:F2:AB:DD:A6:81:1E
                DirName:/O=Test Org/CN=Test Org rauc CA Development
                serial:01
            X509v3 Basic Constraints: 
                CA:FALSE
    Signature Algorithm: sha256WithRSAEncryption
    Signature Value:
        9f:14:1f:7c:fc:4e:21:73:b8:d6:2e:21:93:91:af:d9:23:68:
        2e:80:60:d5:c7:89:dd:f0:8a:c1:ea:4f:92:34:f9:d8:a9:de:
        f6:bd:b9:85:e4:a2:ca:cb:6d:5c:01:c4:57:64:e7:74:b0:af:
        16:8c:78:91:f1:39:b7:42:48:93:8d:53:a5:ea:8b:8f:9d:da:
        77:f6:b2:87:40:7d:2c:a9:02:86:c3:3c:32:e5:30:9c:8a:ed:
        82:b7:7b:80:4b:30:08:60:18:f5:83:8f:28:c7:15:94:2e:95:
        e5:1e:41:fa:9e:db:dc:e0:68:ab:76:2a:0e:7f:f0:50:08:68:
        89:6f:75:e7:a2:c5:c7:08:18:12:06:3b:7e:a0:ab:92:37:3e:
        62:68:69:5e:fd:4b:af:c9:4b:ca:85:af:66:1a:a3:8e:57:94:
        14:4c:72:1c:d6:b7:4c:67:be:36:ff:9c:c3:24:8d:c8:32:8a:
        bc:43:37:1f:91:d8:7b:95:29:ff:7a:74:01:88:34:c6:36:91:
        f1:fc:8c:47:0a:df:5b:2b:29:e4:30:d4:d1:cb:73:3b:0a:ff:
        7d:ac:1d:0f:5a:db:e6:a3:d8:6c:46:36:27:3e:60:f4:7f:3a:
        10:43:d2:1d:33:a1:8e:5f:8c:90:05:27:88:eb:3e:bb:f6:e3:
        9a:eb:a2:b1
-----BEGIN CERTIFICATE-----
MIIDfTCCAmWgAwIBAgIBAjANBgkqhkiG9w0BAQsFADA6MREwDwYDVQQKDAhUZXN0
IE9yZzElMCMGA1UEAwwcVGVzdCBPcmcgcmF1YyBDQSBEZXZlbG9wbWVudDAgFw03
MDAxMDEwMDAwMDBaGA85OTk5MTIzMTIzNTk1OVowNDERMA8GA1UECgwIVGVzdCBP
cmcxHzAdBgNVBAMMFlRlc3QgT3JnIERldmVsb3BtZW50LTEwggEiMA0GCSqGSIb3
DQEBAQUAA4IBDwAwggEKAoIBAQCwuchsdt/9a3CGCObKqeAeIdJpRWpr3/GK7gCx
9AYeDzwUoPRyo6TNvpYOg12m0lpXcIf6T6/8f7QafLSC+u8Q30Cz1A3h3yIXtajX
YRl1Ql70PPv7eQsDOYAc3lBq8aVjaghFY8J4m2Ad21FeRkEijTPHgdq2CYXm2pWh
dTMvreDbBpssGS4j06+w3M7yddcNbLqV3OXXkluUHJSDJlAgV5XKmIVueNZWRzNB
78wNodznTTTdzP1RRb46WhuJ92m+xjOURkV6JM5WKziPw11VXGHeDKQTx3XFmwBH
0MYIyXfRvRr8rFXGga/MnH7y+BWm92dPsp7NUF/pqdqfxDRXAgMBAAGjgZEwgY4w
HQYDVR0OBBYEFHgop60oGTa329AKFOUyRR96yFn4MGIGA1UdIwRbMFmAFNoJVHGs
5+yERkFimUiC8qvdpoEeoT6kPDA6MREwDwYDVQQKDAhUZXN0IE9yZzElMCMGA1UE
AwwcVGVzdCBPcmcgcmF1YyBDQSBEZXZlbG9wbWVudIIBATAJBgNVHRMEAjAAMA0G
CSqGSIb3DQEBCwUAA4IBAQCfFB98/E4hc7jWLiGTka/ZI2gugGDVx4nd8IrB6k+S
NPnYqd72vbmF5KLKy21cAcRXZOd0sK8WjHiR8Tm3QkiTjVOl6ouPndp39rKHQH0s
qQKGwzwy5TCciu2Ct3uASzAIYBj1g48oxxWULpXlHkH6ntvc4GirdioOf/BQCGiJ
b3XnosXHCBgSBjt+oKuSNz5iaGle/UuvyUvKha9mGqOOV5QUTHIc1rdMZ742/5zD
JI3IMoq8Qzcfkdh7lSn/enQBiDTGNpHx/IxHCt9bKynkMNTRy3M7Cv99rB0PWtvm
o9hsRjYnPmD0fzoQQ9IdM6GOX4yQBSeI6z679uOa66Kx
-----END CERTIFICATE-----
